; Function Attrs: nounwind uwtable
define internal void @ff_tx_mdct_inv_float_c(ptr noundef readonly captures(none) %0, ptr noundef %1, ptr noundef readonly captures(none) %2, i64 noundef %3) #3 {
  %5 = getelementptr inbounds nuw i8, ptr %0, i64 16
  %6 = load ptr, ptr %5, align 8, !tbaa !26
  %7 = load i32, ptr %0, align 8, !tbaa !16
  %8 = ashr i32 %7, 1
  %9 = ashr i32 %7, 2
  %10 = getelementptr inbounds nuw i8, ptr %0, i64 8
  %11 = load ptr, ptr %10, align 8, !tbaa !57
  %12 = lshr i64 %3, 2
  %13 = and i32 %7, -2
  %14 = add nsw i32 %13, -1
  %15 = sext i32 %14 to i64
  %16 = mul nsw i64 %12, %15
  %17 = getelementptr inbounds float, ptr %2, i64 %16
  %18 = icmp sgt i32 %8, 0
  br i1 %18, label %.lr.ph.preheader, label %._crit_edge

.lr.ph.preheader:                                 ; preds = %4
  %wide.trip.count = zext nneg i32 %8 to i64
  br label %.lr.ph

._crit_edge:                                      ; preds = %.lr.ph, %4
  %19 = getelementptr inbounds nuw i8, ptr %0, i64 40
  %20 = load ptr, ptr %19, align 8, !tbaa !4
  %21 = getelementptr inbounds nuw i8, ptr %0, i64 32
  %22 = load ptr, ptr %21, align 8, !tbaa !56
  tail call void %20(ptr noundef %22, ptr noundef %1, ptr noundef %1, i64 noundef 8) #16
  %23 = sext i32 %8 to i64
  %24 = getelementptr inbounds %struct.AVComplexFloat, ptr %6, i64 %23
  %25 = icmp sgt i32 %9, 0
  br i1 %25, label %.lr.ph94.preheader, label %._crit_edge95

.lr.ph94.preheader:                               ; preds = %._crit_edge
  %26 = zext nneg i32 %9 to i64
  %wide.trip.count100 = zext nneg i32 %9 to i64
  br label %.lr.ph94

.lr.ph:                                           ; preds = %.lr.ph.preheader, %.lr.ph
  %indvars.iv = phi i64 [ 0, %.lr.ph.preheader ], [ %indvars.iv.next, %.lr.ph ]
  %27 = getelementptr inbounds nuw i32, ptr %11, i64 %indvars.iv
  %28 = load i32, ptr %27, align 4, !tbaa !10
  %29 = sub nsw i32 0, %28
  %30 = sext i32 %29 to i64
  %31 = mul nsw i64 %12, %30
  %32 = getelementptr inbounds float, ptr %17, i64 %31
  %33 = load float, ptr %32, align 4, !tbaa !27
  %34 = sext i32 %28 to i64
  %35 = mul nsw i64 %12, %34
  %36 = getelementptr inbounds float, ptr %2, i64 %35
  %37 = load float, ptr %36, align 4, !tbaa !27
  %38 = getelementptr inbounds nuw %struct.AVComplexFloat, ptr %6, i64 %indvars.iv
  %39 = load float, ptr %38, align 4, !tbaa !49
  %40 = getelementptr inbounds nuw i8, ptr %38, i64 4
  %41 = load float, ptr %40, align 4, !tbaa !51
  %42 = fneg nsz float %41
  %43 = fmul nsz float %37, %42
  %44 = tail call nsz float @llvm.fmuladd.f32(float %33, float %39, float %43)
  %45 = getelementptr inbounds nuw %struct.AVComplexFloat, ptr %1, i64 %indvars.iv
  store float %44, ptr %45, align 4, !tbaa !49
  %46 = load float, ptr %38, align 4, !tbaa !49
  %47 = fmul nsz float %37, %46
  %48 = tail call nsz float @llvm.fmuladd.f32(float %33, float %41, float %47)
  %49 = getelementptr inbounds nuw i8, ptr %45, i64 4
  store float %48, ptr %49, align 4, !tbaa !51
  %indvars.iv.next = add nuw nsw i64 %indvars.iv, 1
  %exitcond.not = icmp eq i64 %indvars.iv.next, %wide.trip.count
  br i1 %exitcond.not, label %._crit_edge, label %.lr.ph, !llvm.loop !86

._crit_edge95:                                    ; preds = %.lr.ph94, %._crit_edge
  ret void

.lr.ph94:                                         ; preds = %.lr.ph94.preheader, %.lr.ph94
  %indvars.iv97 = phi i64 [ 0, %.lr.ph94.preheader ], [ %indvars.iv.next98, %.lr.ph94 ]
  %50 = add nuw nsw i64 %indvars.iv97, %26
  %51 = xor i64 %indvars.iv97, -1
  %52 = add nsw i64 %26, %51
  %53 = getelementptr inbounds %struct.AVComplexFloat, ptr %1, i64 %52
  %54 = getelementptr inbounds nuw i8, ptr %53, i64 4
  %55 = load float, ptr %54, align 4, !tbaa !51
  %56 = load float, ptr %53, align 4, !tbaa !49
  %57 = getelementptr inbounds nuw %struct.AVComplexFloat, ptr %1, i64 %50
  %58 = getelementptr inbounds nuw i8, ptr %57, i64 4
  %59 = load float, ptr %58, align 4, !tbaa !51
  %60 = load float, ptr %57, align 4, !tbaa !49
  %61 = getelementptr inbounds %struct.AVComplexFloat, ptr %24, i64 %52
  %62 = getelementptr inbounds nuw i8, ptr %61, i64 4
  %63 = load float, ptr %62, align 4, !tbaa !51
  %64 = load float, ptr %61, align 4, !tbaa !49
  %65 = fneg nsz float %64
  %66 = fmul nsz float %56, %65
  %67 = tail call nsz float @llvm.fmuladd.f32(float %55, float %63, float %66)
  store float %67, ptr %53, align 4, !tbaa !49
  %68 = load float, ptr %61, align 4, !tbaa !49
  %69 = fmul nsz float %56, %63
  %70 = tail call nsz float @llvm.fmuladd.f32(float %55, float %68, float %69)
  store float %70, ptr %58, align 4, !tbaa !51
  %71 = getelementptr inbounds nuw %struct.AVComplexFloat, ptr %24, i64 %50
  %72 = getelementptr inbounds nuw i8, ptr %71, i64 4
  %73 = load float, ptr %72, align 4, !tbaa !51
  %74 = load float, ptr %71, align 4, !tbaa !49
  %75 = fneg nsz float %74
  %76 = fmul nsz float %60, %75
  %77 = tail call nsz float @llvm.fmuladd.f32(float %59, float %73, float %76)
  store float %77, ptr %57, align 4, !tbaa !49
  %78 = load float, ptr %71, align 4, !tbaa !49
  %79 = fmul nsz float %60, %73
  %80 = tail call nsz float @llvm.fmuladd.f32(float %59, float %78, float %79)
  store float %80, ptr %54, align 4, !tbaa !51
  %indvars.iv.next98 = add nuw nsw i64 %indvars.iv97, 1
  %exitcond101.not = icmp eq i64 %indvars.iv.next98, %wide.trip.count100
  br i1 %exitcond101.not, label %._crit_edge95, label %.lr.ph94, !llvm.loop !87
}